; Function Attrs: mustprogress nounwind uwtable
define internal fastcc void @_ZN12_GLOBAL__N_112StmtProfiler20VisitObjCAtCatchStmtEPKN5clang15ObjCAtCatchStmtE(ptr noundef nonnull align 8 dereferenceable(18) %0, ptr noundef %1) unnamed_addr #0 align 2 {
  tail call fastcc void @_ZN12_GLOBAL__N_112StmtProfiler9VisitStmtEPKN5clang4StmtE(ptr noundef nonnull align 8 dereferenceable(18) %0, ptr noundef %1)
  %3 = getelementptr inbounds nuw i8, ptr %0, i64 8
  %4 = load ptr, ptr %3, align 8
  %5 = getelementptr inbounds nuw i8, ptr %1, i64 8
  %6 = load ptr, ptr %5, align 8
  %7 = icmp eq ptr %6, null
  %8 = tail call noundef i64 @_ZNK4llvm15SmallVectorBaseIjE4sizeEv(ptr noundef nonnull align 8 dereferenceable(144) %4) #11
  %9 = add i64 %8, 1
  %10 = tail call noundef i64 @_ZNK4llvm15SmallVectorBaseIjE8capacityEv(ptr noundef nonnull align 8 dereferenceable(144) %4) #11
  %.not.i.i.i.i.i = icmp ugt i64 %9, %10
  br i1 %.not.i.i.i.i.i, label %11, label %_ZN4llvm16FoldingSetNodeID10AddBooleanEb.exit

11:                                               ; preds = %2
  %12 = getelementptr inbounds nuw i8, ptr %4, i64 16
  tail call void @_ZN4llvm15SmallVectorBaseIjE8grow_podEPvmm(ptr noundef nonnull align 8 dereferenceable(144) %4, ptr noundef nonnull %12, i64 noundef %9, i64 noundef 4) #11
  br label %_ZN4llvm16FoldingSetNodeID10AddBooleanEb.exit

_ZN4llvm16FoldingSetNodeID10AddBooleanEb.exit:    ; preds = %2, %11
  %13 = zext i1 %7 to i32
  %14 = load ptr, ptr %4, align 8
  %15 = tail call noundef i64 @_ZNK4llvm15SmallVectorBaseIjE4sizeEv(ptr noundef nonnull align 8 dereferenceable(144) %4) #11
  %16 = getelementptr inbounds i32, ptr %14, i64 %15
  store i32 %13, ptr %16, align 1
  %17 = tail call noundef i64 @_ZNK4llvm15SmallVectorBaseIjE4sizeEv(ptr noundef nonnull align 8 dereferenceable(144) %4) #11
  %18 = add i64 %17, 1
  tail call void @_ZN4llvm15SmallVectorBaseIjE8set_sizeEm(ptr noundef nonnull align 8 dereferenceable(144) %4, i64 noundef %18) #11
  %19 = load ptr, ptr %5, align 8
  %.not = icmp eq ptr %19, null
  br i1 %.not, label %25, label %20

20:                                               ; preds = %_ZN4llvm16FoldingSetNodeID10AddBooleanEb.exit
  %21 = getelementptr inbounds nuw i8, ptr %19, i64 48
  %.sroa.0.0.copyload.i = load i64, ptr %21, align 8
  %22 = load ptr, ptr %0, align 8
  %23 = getelementptr inbounds nuw i8, ptr %22, i64 32
  %24 = load ptr, ptr %23, align 8
  tail call void %24(ptr noundef nonnull align 8 dereferenceable(18) %0, i64 %.sroa.0.0.copyload.i) #11
  br label %25

25:                                               ; preds = %20, %_ZN4llvm16FoldingSetNodeID10AddBooleanEb.exit
  ret void
}